; Function Attrs: mustprogress nofree norecurse nosync nounwind willreturn memory(argmem: read) uwtable
define hidden noundef zeroext i1 @_ZNK3sat11npn3_finder6binary2eqclERKS1_S4_(ptr nocapture noundef nonnull readnone align 1 dereferenceable(1) %this, ptr nocapture noundef nonnull readonly align 8 dereferenceable(16) %a, ptr nocapture noundef nonnull readonly align 8 dereferenceable(16) %b) local_unnamed_addr #6 align 2 {
entry:
  %0 = load <2 x i32>, ptr %a, align 8
  %1 = load <2 x i32>, ptr %b, align 8
  %2 = icmp eq <2 x i32> %0, %1
  %3 = extractelement <2 x i1> %2, i64 0
  %4 = extractelement <2 x i1> %2, i64 1
  %5 = select i1 %3, i1 %4, i1 false
  ret i1 %5
}